; ModuleID = '44/134.c'
source_filename = "44/134.c"
target datalayout = "e-m:e-p270:32:32-p271:32:32-p272:64:64-i64:64-f80:128-n8:16:32:64-S128"
target triple = "x86_64-pc-linux-gnu"

@.str = private unnamed_addr constant [3 x i8] c"%d\00", align 1
@.str.1 = private unnamed_addr constant [4 x i8] c"%d\0A\00", align 1

; Function Attrs: noinline nounwind uwtable
define dso_local i32 @f(i32 %0) #0 {
  %2 = alloca i32, align 4
  %3 = alloca i32, align 4
  %4 = alloca i32, align 4
  %5 = alloca i32, align 4
  %6 = alloca i32, align 4
  %7 = alloca i32, align 4
  %8 = alloca i32, align 4
  store i32 %0, i32* %2, align 4
  %9 = load i32, i32* %2, align 4
  %10 = srem i32 %9, 10
  store i32 %10, i32* %3, align 4
  %11 = load i32, i32* %2, align 4
  %12 = sdiv i32 %11, 10000
  store i32 %12, i32* %4, align 4
  %13 = load i32, i32* %2, align 4
  %14 = sdiv i32 %13, 1000
  %15 = srem i32 %14, 10
  store i32 %15, i32* %5, align 4
  %16 = load i32, i32* %2, align 4
  %17 = sdiv i32 %16, 100
  %18 = srem i32 %17, 10
  store i32 %18, i32* %6, align 4
  %19 = load i32, i32* %2, align 4
  %20 = sdiv i32 %19, 10
  %21 = srem i32 %20, 10
  store i32 %21, i32* %7, align 4
  %22 = load i32, i32* %4, align 4
  %23 = icmp ne i32 %22, 0
  br i1 %23, label %24, label %38

24:                                               ; preds = %1
  %25 = load i32, i32* %3, align 4
  %26 = mul nsw i32 %25, 10000
  %27 = load i32, i32* %7, align 4
  %28 = mul nsw i32 %27, 1000
  %29 = add nsw i32 %26, %28
  %30 = load i32, i32* %6, align 4
  %31 = mul nsw i32 %30, 100
  %32 = add nsw i32 %29, %31
  %33 = load i32, i32* %5, align 4
  %34 = mul nsw i32 %33, 10
  %35 = add nsw i32 %32, %34
  %36 = load i32, i32* %4, align 4
  %37 = add nsw i32 %35, %36
  store i32 %37, i32* %8, align 4
  br label %38

38:                                               ; preds = %24, %1
  %39 = load i32, i32* %4, align 4
  %40 = icmp eq i32 %39, 0
  br i1 %40, label %41, label %55

41:                                               ; preds = %38
  %42 = load i32, i32* %5, align 4
  %43 = icmp ne i32 %42, 0
  br i1 %43, label %44, label %55

44:                                               ; preds = %41
  %45 = load i32, i32* %3, align 4
  %46 = mul nsw i32 %45, 1000
  %47 = load i32, i32* %7, align 4
  %48 = mul nsw i32 %47, 100
  %49 = add nsw i32 %46, %48
  %50 = load i32, i32* %6, align 4
  %51 = mul nsw i32 %50, 10
  %52 = add nsw i32 %49, %51
  %53 = load i32, i32* %5, align 4
  %54 = add nsw i32 %52, %53
  store i32 %54, i32* %8, align 4
  br label %55

55:                                               ; preds = %44, %41, %38
  %56 = load i32, i32* %4, align 4
  %57 = icmp eq i32 %56, 0
  br i1 %57, label %58, label %72

58:                                               ; preds = %55
  %59 = load i32, i32* %5, align 4
  %60 = icmp eq i32 %59, 0
  br i1 %60, label %61, label %72

61:                                               ; preds = %58
  %62 = load i32, i32* %6, align 4
  %63 = icmp ne i32 %62, 0
  br i1 %63, label %64, label %72

64:                                               ; preds = %61
  %65 = load i32, i32* %3, align 4
  %66 = mul nsw i32 %65, 100
  %67 = load i32, i32* %7, align 4
  %68 = mul nsw i32 %67, 10
  %69 = add nsw i32 %66, %68
  %70 = load i32, i32* %6, align 4
  %71 = add nsw i32 %69, %70
  store i32 %71, i32* %8, align 4
  br label %72

72:                                               ; preds = %64, %61, %58, %55
  %73 = load i32, i32* %4, align 4
  %74 = icmp eq i32 %73, 0
  br i1 %74, label %75, label %89

75:                                               ; preds = %72
  %76 = load i32, i32* %5, align 4
  %77 = icmp eq i32 %76, 0
  br i1 %77, label %78, label %89

78:                                               ; preds = %75
  %79 = load i32, i32* %6, align 4
  %80 = icmp eq i32 %79, 0
  br i1 %80, label %81, label %89

81:                                               ; preds = %78
  %82 = load i32, i32* %7, align 4
  %83 = icmp ne i32 %82, 0
  br i1 %83, label %84, label %89

84:                                               ; preds = %81
  %85 = load i32, i32* %3, align 4
  %86 = mul nsw i32 %85, 10
  %87 = load i32, i32* %7, align 4
  %88 = add nsw i32 %86, %87
  store i32 %88, i32* %8, align 4
  br label %89

89:                                               ; preds = %84, %81, %78, %75, %72
  %90 = load i32, i32* %4, align 4
  %91 = icmp eq i32 %90, 0
  br i1 %91, label %92, label %106

92:                                               ; preds = %89
  %93 = load i32, i32* %5, align 4
  %94 = icmp eq i32 %93, 0
  br i1 %94, label %95, label %106

95:                                               ; preds = %92
  %96 = load i32, i32* %6, align 4
  %97 = icmp eq i32 %96, 0
  br i1 %97, label %98, label %106

98:                                               ; preds = %95
  %99 = load i32, i32* %7, align 4
  %100 = icmp eq i32 %99, 0
  br i1 %100, label %101, label %106

101:                                              ; preds = %98
  %102 = load i32, i32* %3, align 4
  %103 = icmp ne i32 %102, 0
  br i1 %103, label %104, label %106

104:                                              ; preds = %101
  %105 = load i32, i32* %3, align 4
  store i32 %105, i32* %8, align 4
  br label %106

106:                                              ; preds = %104, %101, %98, %95, %92, %89
  %107 = load i32, i32* %2, align 4
  %108 = icmp eq i32 %107, 0
  br i1 %108, label %109, label %110

109:                                              ; preds = %106
  store i32 0, i32* %8, align 4
  br label %110

110:                                              ; preds = %109, %106
  %111 = load i32, i32* %2, align 4
  %112 = icmp eq i32 %111, 0
  br i1 %112, label %113, label %117

113:                                              ; preds = %110
  %114 = load i32, i32* %8, align 4
  %115 = icmp eq i32 %114, 0
  %116 = zext i1 %115 to i32
  br label %117

117:                                              ; preds = %113, %110
  %118 = load i32, i32* %8, align 4
  ret i32 %118
}

; Function Attrs: noinline nounwind uwtable
define dso_local i32 @main(i32 %0, i8** %1) #0 {
  %3 = alloca i32, align 4
  %4 = alloca i32, align 4
  %5 = alloca i8**, align 8
  %6 = alloca [6 x i32], align 16
  %7 = alloca [6 x i32], align 16
  %8 = alloca i32, align 4
  store i32 0, i32* %3, align 4
  store i32 %0, i32* %4, align 4
  store i8** %1, i8*** %5, align 8
  store i32 0, i32* %8, align 4
  br label %9

9:                                                ; preds = %25, %2
  %10 = load i32, i32* %8, align 4
  %11 = icmp slt i32 %10, 6
  br i1 %11, label %12, label %28

12:                                               ; preds = %9
  %13 = load i32, i32* %8, align 4
  %14 = sext i32 %13 to i64
  %15 = getelementptr inbounds [6 x i32], [6 x i32]* %6, i64 0, i64 %14
  %16 = call i32 (i8*, ...) @__isoc99_scanf(i8* getelementptr inbounds ([3 x i8], [3 x i8]* @.str, i64 0, i64 0), i32* %15)
  %17 = load i32, i32* %8, align 4
  %18 = sext i32 %17 to i64
  %19 = getelementptr inbounds [6 x i32], [6 x i32]* %6, i64 0, i64 %18
  %20 = load i32, i32* %19, align 4
  %21 = call i32 @f(i32 %20)
  %22 = load i32, i32* %8, align 4
  %23 = sext i32 %22 to i64
  %24 = getelementptr inbounds [6 x i32], [6 x i32]* %7, i64 0, i64 %23
  store i32 %21, i32* %24, align 4
  br label %25

25:                                               ; preds = %12
  %26 = load i32, i32* %8, align 4
  %27 = add nsw i32 %26, 1
  store i32 %27, i32* %8, align 4
  br label %9

28:                                               ; preds = %9
  store i32 0, i32* %8, align 4
  br label %29

29:                                               ; preds = %38, %28
  %30 = load i32, i32* %8, align 4
  %31 = icmp slt i32 %30, 6
  br i1 %31, label %32, label %41

32:                                               ; preds = %29
  %33 = load i32, i32* %8, align 4
  %34 = sext i32 %33 to i64
  %35 = getelementptr inbounds [6 x i32], [6 x i32]* %7, i64 0, i64 %34
  %36 = load i32, i32* %35, align 4
  %37 = call i32 (i8*, ...) @printf(i8* getelementptr inbounds ([4 x i8], [4 x i8]* @.str.1, i64 0, i64 0), i32 %36)
  br label %38

38:                                               ; preds = %32
  %39 = load i32, i32* %8, align 4
  %40 = add nsw i32 %39, 1
  store i32 %40, i32* %8, align 4
  br label %29

41:                                               ; preds = %29
  ret i32 0
}

declare dso_local i32 @__isoc99_scanf(i8*, ...) #1

declare dso_local i32 @printf(i8*, ...) #1


!llvm.module.flags = !{!0}
!llvm.ident = !{!1}

!0 = !{i32 1, !"wchar_size", i32 4}
!1 = !{!"clang version 10.0.0-4ubuntu1 "}
